target datalayout = "e-m:e-p270:32:32-p271:32:32-p272:64:64-i64:64-i128:128-f80:128-n8:16:32:64-S128"
target triple = "x86_64-pc-linux-gnu"

@g_tres_count = external global i32, align 4

; Function Attrs: nounwind uwtable
define internal void @_set_time_limit(ptr noundef %0, i32 noundef %1, i32 noundef %2, ptr noundef %3) #0 {
  %5 = alloca ptr, align 8
  %6 = alloca i32, align 4
  %7 = alloca i32, align 4
  %8 = alloca ptr, align 8
  store ptr %0, ptr %5, align 8
  store i32 %1, ptr %6, align 4
  store i32 %2, ptr %7, align 4
  store ptr %3, ptr %8, align 8
  %9 = load ptr, ptr %5, align 8
  %10 = load i32, ptr %9, align 4
  %11 = icmp eq i32 %10, -2
  br i1 %11, label %12, label %33

12:                                               ; preds = %4
  %13 = load i32, ptr %7, align 4
  %14 = icmp ne i32 %13, 0
  br i1 %14, label %15, label %18

15:                                               ; preds = %12
  %16 = load i32, ptr %7, align 4
  %17 = load ptr, ptr %5, align 8
  store i32 %16, ptr %17, align 4
  br label %27

18:                                               ; preds = %12
  %19 = load i32, ptr %6, align 4
  %20 = icmp ne i32 %19, -1
  br i1 %20, label %21, label %24

21:                                               ; preds = %18
  %22 = load i32, ptr %6, align 4
  %23 = load ptr, ptr %5, align 8
  store i32 %22, ptr %23, align 4
  br label %26

24:                                               ; preds = %18
  %25 = load ptr, ptr %5, align 8
  store i32 -1, ptr %25, align 4
  br label %26

26:                                               ; preds = %24, %21
  br label %27

27:                                               ; preds = %26, %15
  %28 = load ptr, ptr %8, align 8
  %29 = icmp ne ptr %28, null
  br i1 %29, label %30, label %32

30:                                               ; preds = %27
  %31 = load ptr, ptr %8, align 8
  store i16 1, ptr %31, align 2
  br label %32

32:                                               ; preds = %30, %27
  br label %50

33:                                               ; preds = %4
  %34 = load ptr, ptr %8, align 8
  %35 = icmp ne ptr %34, null
  br i1 %35, label %36, label %49

36:                                               ; preds = %33
  %37 = load ptr, ptr %8, align 8
  %38 = load i16, ptr %37, align 2
  %39 = zext i16 %38 to i32
  %40 = icmp ne i32 %39, 0
  br i1 %40, label %41, label %49

41:                                               ; preds = %36
  %42 = load ptr, ptr %5, align 8
  %43 = load i32, ptr %42, align 4
  %44 = load i32, ptr %7, align 4
  %45 = icmp ugt i32 %43, %44
  br i1 %45, label %46, label %49

46:                                               ; preds = %41
  %47 = load i32, ptr %7, align 4
  %48 = load ptr, ptr %5, align 8
  store i32 %47, ptr %48, align 4
  br label %49

49:                                               ; preds = %46, %41, %36, %33
  br label %50

50:                                               ; preds = %49, %32
  ret void
}

; Function Attrs: nounwind uwtable
define internal zeroext i1 @_validate_time_limit(ptr noundef %0, i32 noundef %1, i64 noundef %2, i64 noundef %3, ptr noundef %4, ptr noundef %5, i1 noundef zeroext %6, i1 noundef zeroext %7) #0 {
  %9 = alloca i1, align 1
  %10 = alloca ptr, align 8
  %11 = alloca i32, align 4
  %12 = alloca i64, align 8
  %13 = alloca i64, align 8
  %14 = alloca ptr, align 8
  %15 = alloca ptr, align 8
  %16 = alloca i8, align 1
  %17 = alloca i8, align 1
  %18 = alloca i32, align 4
  %19 = alloca i64, align 8
  %20 = alloca i32, align 4
  %21 = alloca i32, align 4
  store ptr %0, ptr %10, align 8
  store i32 %1, ptr %11, align 4
  store i64 %2, ptr %12, align 8
  store i64 %3, ptr %13, align 8
  store ptr %4, ptr %14, align 8
  store ptr %5, ptr %15, align 8
  %22 = zext i1 %6 to i8
  store i8 %22, ptr %16, align 1
  %23 = zext i1 %7 to i8
  store i8 %23, ptr %17, align 1
  call void @llvm.lifetime.start.p0(i64 4, ptr %18) #8
  call void @llvm.lifetime.start.p0(i64 8, ptr %19) #8
  %24 = load ptr, ptr %14, align 8
  %25 = load i64, ptr %24, align 8
  store i64 %25, ptr %19, align 8
  call void @llvm.lifetime.start.p0(i64 4, ptr %20) #8
  %26 = load ptr, ptr %14, align 8
  %27 = load i32, ptr %26, align 4
  store i32 %27, ptr %20, align 4
  %28 = load i64, ptr %12, align 8
  %29 = icmp ne i64 %28, 0
  br i1 %29, label %30, label %42

30:                                               ; preds = %8
  %31 = load ptr, ptr %10, align 8
  %32 = load i32, ptr %31, align 4
  %33 = icmp ne i32 %32, -2
  br i1 %33, label %34, label %43

34:                                               ; preds = %30
  %35 = load i8, ptr %16, align 1, !range !8, !noundef !9
  %36 = trunc i8 %35 to i1
  br i1 %36, label %37, label %42

37:                                               ; preds = %34
  %38 = load ptr, ptr %15, align 8
  %39 = load i16, ptr %38, align 2
  %40 = zext i16 %39 to i32
  %41 = icmp eq i32 %40, 65535
  br i1 %41, label %42, label %43

42:                                               ; preds = %37, %34, %8
  store i1 true, ptr %9, align 1
  store i32 1, ptr %21, align 4
  br label %95

43:                                               ; preds = %37, %30
  %44 = load i8, ptr %17, align 1, !range !8, !noundef !9
  %45 = trunc i8 %44 to i1
  br i1 %45, label %46, label %57

46:                                               ; preds = %43
  %47 = load i64, ptr %19, align 8
  %48 = icmp ne i64 %47, -1
  br i1 %48, label %55, label %49

49:                                               ; preds = %46
  %50 = load i64, ptr %13, align 8
  %51 = icmp eq i64 %50, -1
  br i1 %51, label %55, label %52

52:                                               ; preds = %49
  %53 = load i64, ptr %12, align 8
  %54 = icmp eq i64 %53, -2
  br i1 %54, label %55, label %56

55:                                               ; preds = %52, %49, %46
  store i1 true, ptr %9, align 1
  store i32 1, ptr %21, align 4
  br label %95

56:                                               ; preds = %52
  br label %70

57:                                               ; preds = %43
  %58 = load i32, ptr %20, align 4
  %59 = icmp ne i32 %58, -1
  br i1 %59, label %68, label %60

60:                                               ; preds = %57
  %61 = load i64, ptr %13, align 8
  %62 = trunc i64 %61 to i32
  %63 = icmp eq i32 %62, -1
  br i1 %63, label %68, label %64

64:                                               ; preds = %60
  %65 = load i64, ptr %12, align 8
  %66 = trunc i64 %65 to i32
  %67 = icmp eq i32 %66, -2
  br i1 %67, label %68, label %69

68:                                               ; preds = %64, %60, %57
  store i1 true, ptr %9, align 1
  store i32 1, ptr %21, align 4
  br label %95

69:                                               ; preds = %64
  br label %70

70:                                               ; preds = %69, %56
  %71 = load i64, ptr %13, align 8
  %72 = load i64, ptr %12, align 8
  %73 = udiv i64 %71, %72
  %74 = trunc i64 %73 to i32
  store i32 %74, ptr %18, align 4
  %75 = load ptr, ptr %10, align 8
  %76 = load i32, ptr %11, align 4
  %77 = load i32, ptr %18, align 4
  %78 = load ptr, ptr %15, align 8
  call void @_set_time_limit(ptr noundef %75, i32 noundef %76, i32 noundef %77, ptr noundef %78)
  %79 = load i8, ptr %17, align 1, !range !8, !noundef !9
  %80 = trunc i8 %79 to i1
  br i1 %80, label %81, label %84

81:                                               ; preds = %70
  %82 = load i64, ptr %13, align 8
  %83 = load ptr, ptr %14, align 8
  store i64 %82, ptr %83, align 8
  br label %88

84:                                               ; preds = %70
  %85 = load i64, ptr %13, align 8
  %86 = trunc i64 %85 to i32
  %87 = load ptr, ptr %14, align 8
  store i32 %86, ptr %87, align 4
  br label %88

88:                                               ; preds = %84, %81
  %89 = load ptr, ptr %10, align 8
  %90 = load i32, ptr %89, align 4
  %91 = load i32, ptr %18, align 4
  %92 = icmp ugt i32 %90, %91
  br i1 %92, label %93, label %94

93:                                               ; preds = %88
  store i1 false, ptr %9, align 1
  store i32 1, ptr %21, align 4
  br label %95

94:                                               ; preds = %88
  store i1 true, ptr %9, align 1
  store i32 1, ptr %21, align 4
  br label %95

95:                                               ; preds = %94, %93, %68, %55, %42
  call void @llvm.lifetime.end.p0(i64 4, ptr %20) #8
  call void @llvm.lifetime.end.p0(i64 8, ptr %19) #8
  call void @llvm.lifetime.end.p0(i64 4, ptr %18) #8
  %96 = load i1, ptr %9, align 1
  ret i1 %96
}

; Function Attrs: nounwind uwtable
define internal zeroext i1 @_validate_tres_time_limits(ptr noundef %0, ptr noundef %1, i32 noundef %2, ptr noundef %3, ptr noundef %4, ptr noundef %5, ptr noundef %6, i1 noundef zeroext %7) #0 {
  %9 = alloca i1, align 1
  %10 = alloca ptr, align 8
  %11 = alloca ptr, align 8
  %12 = alloca i32, align 4
  %13 = alloca ptr, align 8
  %14 = alloca ptr, align 8
  %15 = alloca ptr, align 8
  %16 = alloca ptr, align 8
  %17 = alloca i8, align 1
  %18 = alloca i32, align 4
  %19 = alloca i32, align 4
  store ptr %0, ptr %10, align 8
  store ptr %1, ptr %11, align 8
  store i32 %2, ptr %12, align 4
  store ptr %3, ptr %13, align 8
  store ptr %4, ptr %14, align 8
  store ptr %5, ptr %15, align 8
  store ptr %6, ptr %16, align 8
  %20 = zext i1 %7 to i8
  store i8 %20, ptr %17, align 1
  call void @llvm.lifetime.start.p0(i64 4, ptr %18) #8
  %21 = load i8, ptr %17, align 1, !range !8, !noundef !9
  %22 = trunc i8 %21 to i1
  br i1 %22, label %23, label %28

23:                                               ; preds = %8
  %24 = load ptr, ptr %16, align 8
  %25 = load i16, ptr %24, align 2
  %26 = zext i16 %25 to i32
  %27 = icmp eq i32 %26, 65535
  br i1 %27, label %28, label %29

28:                                               ; preds = %23, %8
  store i1 true, ptr %9, align 1
  store i32 1, ptr %19, align 4
  br label %63

29:                                               ; preds = %23
  store i32 0, ptr %18, align 4
  br label %30

30:                                               ; preds = %59, %29
  %31 = load i32, ptr %18, align 4
  %32 = load i32, ptr @g_tres_count, align 4
  %33 = icmp ult i32 %31, %32
  br i1 %33, label %34, label %62

34:                                               ; preds = %30
  %35 = load i32, ptr %18, align 4
  %36 = load ptr, ptr %10, align 8
  store i32 %35, ptr %36, align 4
  %37 = load ptr, ptr %11, align 8
  %38 = load i32, ptr %12, align 4
  %39 = load ptr, ptr %13, align 8
  %40 = load i32, ptr %18, align 4
  %41 = sext i32 %40 to i64
  %42 = getelementptr inbounds i64, ptr %39, i64 %41
  %43 = load i64, ptr %42, align 8
  %44 = load ptr, ptr %14, align 8
  %45 = load i32, ptr %18, align 4
  %46 = sext i32 %45 to i64
  %47 = getelementptr inbounds i64, ptr %44, i64 %46
  %48 = load i64, ptr %47, align 8
  %49 = load ptr, ptr %15, align 8
  %50 = load i32, ptr %18, align 4
  %51 = sext i32 %50 to i64
  %52 = getelementptr inbounds i64, ptr %49, i64 %51
  %53 = load ptr, ptr %16, align 8
  %54 = load i8, ptr %17, align 1, !range !8, !noundef !9
  %55 = trunc i8 %54 to i1
  %56 = call zeroext i1 @_validate_time_limit(ptr noundef %37, i32 noundef %38, i64 noundef %43, i64 noundef %48, ptr noundef %52, ptr noundef %53, i1 noundef zeroext %55, i1 noundef zeroext true)
  br i1 %56, label %58, label %57

57:                                               ; preds = %34
  store i1 false, ptr %9, align 1
  store i32 1, ptr %19, align 4
  br label %63

58:                                               ; preds = %34
  br label %59

59:                                               ; preds = %58
  %60 = load i32, ptr %18, align 4
  %61 = add nsw i32 %60, 1
  store i32 %61, ptr %18, align 4
  br label %30, !llvm.loop !43

62:                                               ; preds = %30
  store i1 true, ptr %9, align 1
  store i32 1, ptr %19, align 4
  br label %63

63:                                               ; preds = %62, %57, %28
  call void @llvm.lifetime.end.p0(i64 4, ptr %18) #8
  %64 = load i1, ptr %9, align 1
  ret i1 %64
}