; Function Attrs: nofree norecurse nosync nounwind memory(read, argmem: readwrite, inaccessiblemem: none) uwtable
define internal fastcc noundef zeroext i1 @_validate_tres_time_limits(ptr noundef nonnull writeonly captures(none) %0, ptr noundef captures(none) %1, i32 noundef %2, ptr noundef readonly captures(none) %3, ptr noundef readonly captures(none) %4, ptr noundef captures(none) %5, ptr noundef captures(none) %6, i1 noundef zeroext %7) unnamed_addr #7 {
  br i1 %7, label %9, label %.loopexit

9:                                                ; preds = %8
  %10 = load i16, ptr %6, align 2
  %11 = icmp ne i16 %10, -1
  %12 = load i32, ptr @g_tres_count, align 4
  %13 = icmp ne i32 %12, 0
  %or.cond = select i1 %11, i1 %13, i1 false
  br i1 %or.cond, label %.lr.ph, label %.loopexit

.lr.ph:                                           ; preds = %9, %_validate_time_limit.exit.thread
  %indvars.iv = phi i64 [ %indvars.iv.next, %_validate_time_limit.exit.thread ], [ 0, %9 ]
  %14 = trunc nuw nsw i64 %indvars.iv to i32
  store i32 %14, ptr %0, align 4
  %15 = getelementptr inbounds nuw i64, ptr %3, i64 %indvars.iv
  %16 = load i64, ptr %15, align 8
  %17 = getelementptr inbounds nuw i64, ptr %4, i64 %indvars.iv
  %18 = load i64, ptr %17, align 8
  %19 = getelementptr inbounds nuw i64, ptr %5, i64 %indvars.iv
  %20 = load i64, ptr %19, align 8
  %.not.i = icmp eq i64 %16, 0
  br i1 %.not.i, label %_validate_time_limit.exit.thread, label %21

21:                                               ; preds = %.lr.ph
  %22 = load i32, ptr %1, align 4
  %.not36.i = icmp eq i32 %22, -2
  br i1 %.not36.i, label %26, label %23

23:                                               ; preds = %21
  %24 = load i16, ptr %6, align 2
  %25 = icmp eq i16 %24, -1
  br i1 %25, label %_validate_time_limit.exit.thread, label %.thread

26:                                               ; preds = %21
  %27 = icmp ne i64 %20, -1
  %28 = icmp eq i64 %18, -1
  %or.cond.i = or i1 %28, %27
  %29 = icmp eq i64 %16, -2
  %or.cond3.i = or i1 %29, %or.cond.i
  br i1 %or.cond3.i, label %_validate_time_limit.exit.thread, label %33

.thread:                                          ; preds = %23
  %30 = icmp ne i64 %20, -1
  %31 = icmp eq i64 %18, -1
  %or.cond.i18 = or i1 %31, %30
  %32 = icmp eq i64 %16, -2
  %or.cond3.i19 = or i1 %32, %or.cond.i18
  br i1 %or.cond3.i19, label %_validate_time_limit.exit.thread, label %36

33:                                               ; preds = %26
  %34 = udiv i64 %18, %16
  %35 = trunc i64 %34 to i32
  %.not20.i.i = icmp eq i32 %35, 0
  %.sink.i.i = select i1 %.not20.i.i, i32 %2, i32 %35
  store i32 %.sink.i.i, ptr %1, align 4
  store i16 1, ptr %6, align 2
  br label %_validate_time_limit.exit

36:                                               ; preds = %.thread
  %37 = udiv i64 %18, %16
  %38 = trunc i64 %37 to i32
  %.not19.i.i = icmp ne i16 %24, 0
  %39 = icmp ugt i32 %22, %38
  %or.cond.i.i = and i1 %39, %.not19.i.i
  br i1 %or.cond.i.i, label %40, label %_validate_time_limit.exit

40:                                               ; preds = %36
  store i32 %38, ptr %1, align 4
  br label %_validate_time_limit.exit

_validate_time_limit.exit:                        ; preds = %33, %36, %40
  %41 = phi i32 [ %38, %40 ], [ %38, %36 ], [ %35, %33 ]
  store i64 %18, ptr %19, align 8
  %42 = load i32, ptr %1, align 4
  %.not = icmp ugt i32 %42, %41
  br i1 %.not, label %.loopexit, label %_validate_time_limit.exit.thread

_validate_time_limit.exit.thread:                 ; preds = %.thread, %26, %.lr.ph, %23, %_validate_time_limit.exit
  %indvars.iv.next = add nuw nsw i64 %indvars.iv, 1
  %43 = load i32, ptr @g_tres_count, align 4
  %44 = zext i32 %43 to i64
  %45 = icmp samesign ult i64 %indvars.iv.next, %44
  br i1 %45, label %.lr.ph, label %.loopexit, !llvm.loop !46

.loopexit:                                        ; preds = %_validate_time_limit.exit, %_validate_time_limit.exit.thread, %8, %9
  %.016 = phi i1 [ true, %9 ], [ true, %8 ], [ false, %_validate_time_limit.exit ], [ true, %_validate_time_limit.exit.thread ]
  ret i1 %.016
}